(lp0
c__builtin__
set
p1
((lp2
(I-10
F0.16666
tp3
a(I-21
F4.5
tp4
a(I-23
F4.5
tp5
a(I9
F1.5
tp6
a(I7
F3.0
tp7
a(I15
F0.5
tp8
a(I-7
F2.0
tp9
a(I20
F7.0
tp10
a(I9
F0.25
tp11
a(I-5
F1.0
tp12
a(I-4
F3.5
tp13
a(I-12
F0.25
tp14
a(I-13
F2.0
tp15
a(I6
F1.5
tp16
a(I-1
F0.5
tp17
a(I14
F1.0
tp18
a(I-16
F0.5
tp19
a(I1
F0.33333
tp20
a(I6
F2.25
tp21
a(I3
F2.0
tp22
a(I5
F4.75
tp23
a(I4
F5.0
tp24
a(I16
F0.5
tp25
a(I8
F15.5
tp26
a(I-7
F2.5
tp27
a(I11
F0.75
tp28
a(I-9
F2.5
tp29
a(I13
F3.5
tp30
a(I3
F2.5
tp31
a(I-3
F0.66666
tp32
a(I12
F3.5
tp33
a(I-18
F1.0
tp34
a(I0
F2.5
tp35
a(I-10
F4.5
tp36
a(I-1
F3.0
tp37
a(I-4
F1.0
tp38
a(I25
F0.5
tp39
a(I-7
F0.33333
tp40
a(I-27
F1.0
tp41
a(I-3
F4.0
tp42
a(I-10
F0.5
tp43
a(I16
F1.5
tp44
a(I-15
F6.0
tp45
a(I6
F0.08333
tp46
a(I-1
F1.25
tp47
a(I-16
F1.5
tp48
a(I0
F0.66666
tp49
a(I5
F1.0
tp50
a(I-9
F6.0
tp51
a(I17
F6.0
tp52
a(I-5
F5.5
tp53
a(I13
F1.5
tp54
a(I-19
F6.0
tp55
a(I-8
F2.0
tp56
a(I2
F6.5
tp57
a(I-31
F0.5
tp58
a(I-7
F3.0
tp59
a(I10
F0.08333
tp60
a(I-2
F2.0
tp61
a(I9
F0.75
tp62
a(I-24
F0.25
tp63
a(I-5
F5.16666
tp64
a(I13
F6.0
tp65
a(I-13
F0.5
tp66
a(I0
F5.0
tp67
a(I24
F2.0
tp68
a(I1
F3.75
tp69
a(I1
F0.25
tp70
a(I-7
F0.08333
tp71
a(I-1
F2.5
tp72
a(I20
F2.33333
tp73
a(I7
F0.16666
tp74
a(I6
F1.0
tp75
a(I-24
F0.5
tp76
a(I2
F0.33333
tp77
a(I7
F4.0
tp78
a(I-1
F2.25
tp79
a(I-14
F2.5
tp80
a(I-2
F2.25
tp81
a(I19
F1.0
tp82
a(I-3
F0.5
tp83
a(I-12
F1.25
tp84
a(I6
F2.5
tp85
a(I-3
F0.75
tp86
a(I-12
F1.75
tp87
a(I15
F0.75
tp88
a(I-7
F4.0
tp89
a(I-6
F0.16666
tp90
a(I8
F0.5
tp91
a(I-6
F3.0
tp92
a(I-26
F0.5
tp93
a(I-18
F3.0
tp94
a(I-5
F10.0
tp95
a(I-2
F5.0
tp96
a(I3
F0.16666
tp97
a(I-5
F1.75
tp98
a(I-19
F2.25
tp99
a(I-12
F1.0
tp100
a(I22
F0.5
tp101
a(I-11
F4.0
tp102
a(I-16
F0.75
tp103
a(I1
F5.5
tp104
a(I31
F0.25
tp105
a(I-12
F2.0
tp106
a(I-12
F0.08333
tp107
a(I20
F1.0
tp108
a(I-17
F6.0
tp109
a(I4
F2.5
tp110
a(I5
F1.75
tp111
a(I-14
F4.5
tp112
a(I1
F4.5
tp113
a(I6
F0.41666
tp114
a(I9
F6.0
tp115
a(I-5
F3.0
tp116
a(I-4
F4.0
tp117
a(I-4
F0.66666
tp118
a(I-29
F0.5
tp119
a(I-39
F0.25
tp120
a(I-15
F3.0
tp121
a(I5
F0.08333
tp122
a(I3
F4.0
tp123
a(I4
F7.0
tp124
a(I-10
F2.0
tp125
a(I5
F6.0
tp126
a(I-1
F0.08333
tp127
a(I19
F4.5
tp128
a(I17
F3.0
tp129
a(I-3
F3.75
tp130
a(I1
F0.75
tp131
a(I9
F23.0
tp132
a(I-32
F2.25
tp133
a(I-15
F0.5
tp134
a(I3
F0.5
tp135
a(I-2
F8.25
tp136
a(I11
F1.0
tp137
a(I-3
F2.0
tp138
a(I-14
F0.75
tp139
a(I-15
F4.0
tp140
a(I-2
F0.33333
tp141
a(I0
F5.5
tp142
a(I-14
F3.0
tp143
a(I-6
F0.33333
tp144
a(I8
F1.5
tp145
a(I-10
F5.0
tp146
a(I6
F0.75
tp147
a(I-2
F0.25
tp148
a(I-9
F1.5
tp149
a(I4
F0.08333
tp150
a(I-18
F2.5
tp151
a(I8
F0.25
tp152
a(I-19
F0.5
tp153
a(I1
F0.16666
tp154
a(I-20
F1.0
tp155
a(I-7
F0.25
tp156
a(I-19
F4.0
tp157
a(I-5
F4.25
tp158
a(I-8
F4.0
tp159
a(I16
F0.25
tp160
a(I23
F0.5
tp161
a(I-7
F1.0
tp162
a(I-6
F0.5
tp163
a(I-6
F6.0
tp164
a(I3
F1.5
tp165
a(I-13
F1.5
tp166
a(I8
F0.08333
tp167
a(I5
F5.75
tp168
a(I12
F1.0
tp169
a(I-2
F0.5
tp170
a(I13
F4.0
tp171
a(I0
F7.0
tp172
a(I21
F0.16666
tp173
a(I1
F6.0
tp174
a(I-4
F3.0
tp175
a(I-12
F1.5
tp176
a(I2
F5.0
tp177
a(I-12
F4.0
tp178
a(I5
F8.0
tp179
a(I30
F0.25
tp180
a(I-23
F3.0
tp181
a(I10
F3.25
tp182
a(I3
F2.25
tp183
a(I9
F0.16666
tp184
a(I19
F3.0
tp185
a(I-42
F1.0
tp186
a(I-18
F2.0
tp187
a(I8
F2.0
tp188
a(I-6
F1.0
tp189
a(I-7
F0.75
tp190
a(I9
F3.0
tp191
a(I-5
F2.5
tp192
a(I-11
F3.5
tp193
a(I7
F0.75
tp194
a(I14
F2.0
tp195
a(I19
F0.33333
tp196
a(I-12
F3.0
tp197
a(I3
F1.0
tp198
a(I-11
F2.0
tp199
a(I-48
F0.25
tp200
a(I31
F2.0
tp201
a(I-7
F5.0
tp202
a(I6
F16.0
tp203
a(I-6
F0.25
tp204
a(I12
F1.5
tp205
a(I44
F0.75
tp206
a(I-2
F0.08333
tp207
a(I-17
F1.5
tp208
a(I10
F1.5
tp209
a(I-6
F8.0
tp210
a(I1
F0.91666
tp211
a(I0
F1.25
tp212
a(I13
F0.66666
tp213
a(I9
F4.0
tp214
a(I-22
F2.5
tp215
a(I-20
F2.0
tp216
a(I10
F3.0
tp217
a(I17
F0.33333
tp218
a(I14
F5.0
tp219
a(I-17
F0.75
tp220
a(I-7
F1.25
tp221
a(I1
F16.0
tp222
a(I15
F0.25
tp223
a(I-15
F1.0
tp224
a(I-5
F1.5
tp225
a(I3
F6.0
tp226
a(I26
F0.25
tp227
a(I4
F1.0
tp228
a(I-10
F0.25
tp229
a(I5
F4.0
tp230
a(I2
F2.5
tp231
a(I17
F1.0
tp232
a(I-4
F0.5
tp233
a(I-2
F4.0
tp234
a(I14
F0.5
tp235
a(I22
F0.25
tp236
a(I9
F0.33333
tp237
a(I-3
F1.5
tp238
a(I-5
F0.08333
tp239
a(I-26
F2.0
tp240
a(I13
F0.25
tp241
a(I15
F0.16666
tp242
a(I-9
F0.25
tp243
a(I0
F2.0
tp244
a(I-14
F1.0
tp245
a(I5
F2.5
tp246
a(I19
F0.25
tp247
a(I1
F3.0
tp248
a(I4
F0.16666
tp249
a(I4
F8.0
tp250
a(I-7
F3.5
tp251
a(I2
F8.0
tp252
a(I12
F0.16666
tp253
a(I29
F0.5
tp254
a(I6
F2.0
tp255
a(I3
F3.5
tp256
a(I5
F0.5
tp257
a(I-20
F3.0
tp258
a(I3
F6.5
tp259
a(I7
F3.25
tp260
a(I-8
F6.0
tp261
a(I-1
F1.5
tp262
a(I0
F1.5
tp263
a(I-7
F7.0
tp264
a(I-6
F4.0
tp265
a(I-3
F0.08333
tp266
a(I-10
F0.75
tp267
a(I12
F3.0
tp268
a(I-2
F6.0
tp269
a(I16
F0.16666
tp270
a(I-25
F1.5
tp271
a(I2
F3.25
tp272
a(I-3
F0.16666
tp273
a(I1
F4.0
tp274
a(I-5
F0.66666
tp275
a(I1
F0.08333
tp276
a(I2
F3.0
tp277
a(I10
F0.5
tp278
a(I21
F14.5
tp279
a(I-12
F0.5
tp280
a(I10
F2.25
tp281
a(I6
F0.16666
tp282
a(I-1
F3.5
tp283
a(I7
F5.5
tp284
a(I7
F0.5
tp285
a(I-23
F1.0
tp286
a(I-17
F2.5
tp287
a(I-29
F3.5
tp288
a(I19
F5.0
tp289
a(I-18
F2.25
tp290
a(I-18
F4.0
tp291
a(I-7
F8.0
tp292
a(I0
F2.25
tp293
a(I5
F1.5
tp294
a(I8
F4.0
tp295
a(I-16
F2.5
tp296
a(I7
F1.5
tp297
a(I17
F0.5
tp298
a(I9
F1.0
tp299
a(I-12
F5.5
tp300
a(I-2
F9.0
tp301
a(I14
F3.5
tp302
a(I12
F16.0
tp303
a(I-10
F1.25
tp304
a(I-2
F1.25
tp305
a(I-34
F2.0
tp306
a(I-19
F2.5
tp307
a(I3
F3.0
tp308
a(I-11
F0.5
tp309
a(I4
F4.0
tp310
a(I-19
F0.75
tp311
a(I23
F0.25
tp312
a(I12
F0.75
tp313
a(I-22
F1.0
tp314
a(I23
F1.5
tp315
a(I-15
F2.25
tp316
a(I-17
F2.0
tp317
a(I-4
F0.08333
tp318
a(I-5
F7.0
tp319
a(I10
F1.0
tp320
a(I-4
F2.5
tp321
a(I4
F1.5
tp322
a(I5
F3.25
tp323
a(I-28
F0.25
tp324
a(I19
F1.5
tp325
a(I15
F2.0
tp326
a(I-15
F7.0
tp327
a(I-6
F2.75
tp328
a(I-15
F0.25
tp329
a(I4
F3.0
tp330
a(I-10
F2.5
tp331
a(I-28
F1.5
tp332
a(I5
F2.0
tp333
a(I33
F0.25
tp334
a(I-17
F0.25
tp335
a(I-24
F24.0
tp336
a(I8
F0.16666
tp337
a(I14
F1.5
tp338
a(I-8
F1.0
tp339
a(I20
F0.5
tp340
a(I-31
F1.0
tp341
a(I-2
F1.5
tp342
a(I-17
F9.5
tp343
a(I35
F0.5
tp344
a(I-12
F3.25
tp345
a(I12
F6.0
tp346
a(I6
F0.5
tp347
a(I4
F1.33333
tp348
a(I1
F0.66666
tp349
a(I0
F4.0
tp350
a(I24
F1.0
tp351
a(I1
F1.0
tp352
a(I5
F0.16666
tp353
a(I1
F2.5
tp354
a(I6
F0.25
tp355
a(I-9
F0.16666
tp356
a(I-7
F1.75
tp357
a(I11
F0.25
tp358
a(I7
F2.5
tp359
a(I-19
F0.25
tp360
a(I-8
F8.5
tp361
a(I10
F0.16666
tp362
a(I9
F0.08333
tp363
a(I-6
F2.0
tp364
a(I-1
F4.0
tp365
a(I-5
F0.16666
tp366
a(I13
F0.5
tp367
a(I-5
F0.25
tp368
a(I16
F0.75
tp369
a(I2
F1.0
tp370
a(I-12
F0.75
tp371
a(I3
F0.66666
tp372
a(I-11
F5.0
tp373
a(I7
F2.0
tp374
a(I5
F6.5
tp375
a(I-5
F0.75
tp376
a(I-29
F1.5
tp377
a(I20
F0.25
tp378
a(I-7
F0.16666
tp379
a(I4
F0.25
tp380
a(I-53
F6.0
tp381
a(I-18
F1.5
tp382
a(I-5
F2.75
tp383
a(I-2
F0.66666
tp384
a(I-1
F2.0
tp385
a(I10
F4.0
tp386
a(I-4
F0.33333
tp387
a(I-16
F1.0
tp388
a(I14
F4.25
tp389
a(I2
F4.5
tp390
a(I-7
F0.66666
tp391
a(I0
F8.0
tp392
a(I0
F0.16666
tp393
a(I3
F5.0
tp394
a(I27
F0.25
tp395
a(I-8
F1.5
tp396
a(I-14
F0.08333
tp397
a(I29
F2.0
tp398
a(I2
F0.66666
tp399
a(I16
F1.0
tp400
a(I0
F0.33333
tp401
a(I-3
F1.75
tp402
a(I-27
F0.25
tp403
a(I-4
F2.0
tp404
a(I-27
F1.5
tp405
a(I-3
F3.0
tp406
a(I7
F0.33333
tp407
a(I1
F1.5
tp408
a(I-21
F0.5
tp409
a(I-13
F1.0
tp410
a(I-8
F2.75
tp411
a(I-14
F2.0
tp412
a(I17
F0.75
tp413
a(I-22
F0.25
tp414
a(I-10
F4.0
tp415
a(I2
F13.0
tp416
a(I14
F2.25
tp417
a(I5
F11.5
tp418
a(I-9
F1.0
tp419
a(I2
F0.16666
tp420
a(I26
F1.5
tp421
a(I27
F0.5
tp422
a(I41
F0.5
tp423
a(I-20
F0.25
tp424
a(I-22
F16.0
tp425
a(I7
F36.0
tp426
a(I-8
F3.0
tp427
a(I1
F0.5
tp428
a(I-14
F0.16666
tp429
a(I-3
F0.33333
tp430
a(I12
F0.25
tp431
a(I-2
F3.0
tp432
a(I-25
F7.0
tp433
a(I0
F6.0
tp434
a(I24
F3.0
tp435
a(I-13
F0.25
tp436
a(I2
F4.0
tp437
a(I14
F2.5
tp438
a(I-20
F0.5
tp439
a(I-24
F2.5
tp440
a(I3
F0.08333
tp441
a(I-2
F0.16666
tp442
a(I-15
F0.16666
tp443
a(I17
F2.0
tp444
a(I19
F0.5
tp445
a(I-32
F0.08333
tp446
a(I24
F0.5
tp447
a(I8
F1.0
tp448
a(I-6
F1.5
tp449
a(I-15
F1.5
tp450
a(I3
F1.25
tp451
a(I0
F4.5
tp452
a(I5
F0.25
tp453
a(I-37
F4.25
tp454
a(I-1
F0.66666
tp455
a(I26
F1.25
tp456
a(I9
F3.25
tp457
a(I-10
F8.0
tp458
a(I8
F2.5
tp459
a(I0
F0.25
tp460
a(I0
F1.33333
tp461
a(I11
F2.5
tp462
a(I-21
F3.0
tp463
a(I0
F0.91666
tp464
a(I-11
F0.75
tp465
a(I0
F0.5
tp466
a(I7
F1.75
tp467
a(I-6
F3.5
tp468
a(I-17
F1.0
tp469
a(I-5
F6.08333
tp470
a(I-2
F2.75
tp471
a(I0
F3.25
tp472
a(I-5
F2.0
tp473
a(I2
F3.5
tp474
a(I10
F2.0
tp475
a(I-13
F2.5
tp476
a(I5
F0.75
tp477
a(I-3
F8.0
tp478
a(I14
F4.0
tp479
a(I-16
F3.0
tp480
a(I15
F1.0
tp481
a(I12
F2.5
tp482
a(I-15
F2.5
tp483
a(I10
F6.5
tp484
a(I27
F2.0
tp485
a(I2
F0.75
tp486
a(I4
F0.5
tp487
a(I-10
F3.0
tp488
a(I-10
F1.5
tp489
a(I-16
F0.16666
tp490
a(I-8
F1.75
tp491
a(I10
F0.25
tp492
a(I-21
F1.5
tp493
a(I2
F0.08333
tp494
a(I-9
F0.75
tp495
a(I21
F2.0
tp496
a(I8
F0.75
tp497
a(I-18
F0.5
tp498
a(I-14
F3.25
tp499
a(I3
F64.0
tp500
a(I-6
F5.5
tp501
a(I-6
F1.25
tp502
a(I11
F0.5
tp503
a(I-3
F1.0
tp504
a(I-8
F0.5
tp505
a(I-11
F0.25
tp506
a(I-2
F0.75
tp507
a(I7
F0.25
tp508
a(I-4
F1.25
tp509
a(I0
F1.0
tp510
a(I-14
F1.5
tp511
a(I-5
F0.5
tp512
a(I-14
F5.5
tp513
a(I-9
F3.0
tp514
a(I3
F1.75
tp515
a(I-3
F2.5
tp516
a(I0
F2.75
tp517
a(I18
F0.5
tp518
a(I12
F0.5
tp519
a(I-27
F0.5
tp520
a(I-19
F3.0
tp521
a(I6
F3.5
tp522
a(I9
F0.5
tp523
a(I-7
F0.5
tp524
a(I12
F2.0
tp525
a(I-1
F1.0
tp526
a(I21
F0.5
tp527
a(I-25
F1.0
tp528
a(I-6
F0.75
tp529
a(I-9
F0.5
tp530
a(I17
F4.5
tp531
a(I1
F5.0
tp532
a(I25
F0.25
tp533
a(I2
F2.0
tp534
a(I4
F0.75
tp535
a(I6
F4.0
tp536
a(I-24
F3.0
tp537
a(I7
F1.0
tp538
a(I-1
F0.33333
tp539
a(I19
F2.0
tp540
a(I0
F0.75
tp541
a(I-4
F0.16666
tp542
a(I-4
F0.25
tp543
a(I-14
F0.25
tp544
a(I14
F0.25
tp545
a(I8
F3.0
tp546
a(I32
F0.25
tp547
a(I-30
F0.25
tp548
a(I9
F2.0
tp549
a(I-2
F8.0
tp550
a(I-3
F0.25
tp551
a(I11
F1.5
tp552
a(I14
F3.0
tp553
a(I2
F2.25
tp554
a(I19
F2.25
tp555
a(I18
F0.25
tp556
a(I3
F0.75
tp557
a(I-11
F1.0
tp558
a(I-4
F1.5
tp559
a(I-9
F0.33333
tp560
a(I14
F0.08333
tp561
a(I-5
F1.33333
tp562
a(I-22
F0.5
tp563
a(I-17
F3.0
tp564
a(I-1
F0.75
tp565
a(I-26
F0.25
tp566
a(I0
F3.5
tp567
a(I-1
F0.16666
tp568
a(I-5
F4.0
tp569
a(I-5
F0.33333
tp570
a(I10
F0.75
tp571
a(I-11
F1.25
tp572
a(I-9
F1.25
tp573
a(I3
F0.25
tp574
a(I-3
F6.0
tp575
a(I5
F5.25
tp576
a(I13
F1.0
tp577
a(I-17
F0.5
tp578
a(I-15
F0.75
tp579
a(I5
F3.66666
tp580
a(I21
F0.25
tp581
a(I4
F2.0
tp582
a(I-10
F1.0
tp583
a(I5
F3.0
tp584
a(I-1
F0.25
tp585
a(I31
F0.5
tp586
a(I17
F0.25
tp587
a(I-4
F0.75
tp588
a(I-7
F1.5
tp589
a(I-19
F8.0
tp590
a(I-2
F2.5
tp591
a(I0
F0.08333
tp592
a(I-8
F0.25
tp593
a(I-16
F0.25
tp594
a(I26
F0.5
tp595
a(I2
F1.5
tp596
a(I-29
F6.0
tp597
a(I11
F2.0
tp598
a(I-5
F5.0
tp599
a(I-19
F0.66666
tp600
a(I0
F3.0
tp601
a(I24
F0.25
tp602
a(I1
F2.0
tp603
a(I-8
F0.75
tp604
a(I0
F2.66666
tp605
a(I20
F0.16666
tp606
a(I2
F0.25
tp607
a(I5
F12.0
tp608
a(I-20
F1.5
tp609
a(I-19
F1.5
tp610
a(I6
F3.0
tp611
a(I-19
F1.0
tp612
a(I-7
F6.0
tp613
a(I-2
F1.0
tp614
a(I-30
F0.5
tp615
a(I-6
F5.0
tp616
a(I-14
F0.5
tp617
a(I4
F3.75
tp618
a(I7
F0.08333
tp619
a(I13
F3.0
tp620
a(I2
F0.5
tp621
a(I-9
F5.75
tp622
atp623
Rp624
a(dp625
g3
I0
sg7
I4
sg5
I2
sg11
I8
sg530
I527
sg88
I85
sg9
I6
sg34
I31
sg6
I3
sg12
I9
sg87
I84
sg15
I12
sg355
I352
sg507
I504
sg18
I15
sg48
I45
sg20
I17
sg85
I82
sg22
I19
sg375
I372
sg24
I21
sg25
I22
sg27
I24
sg462
I459
sg522
I519
sg183
I180
sg430
I427
sg313
I310
sg10
I7
sg368
I365
sg43
I40
sg144
I141
sg38
I35
sg41
I38
sg42
I39
sg267
I264
sg44
I41
sg45
I42
sg46
I43
sg262
I259
sg464
I461
sg50
I47
sg51
I48
sg432
I429
sg52
I49
sg225
I222
sg470
I467
sg55
I52
sg56
I53
sg58
I55
sg59
I56
sg60
I57
sg493
I490
sg61
I58
sg62
I59
sg64
I61
sg65
I62
sg66
I63
sg431
I428
sg67
I64
sg68
I65
sg408
I405
sg354
I351
sg578
I575
sg69
I66
sg71
I68
sg72
I69
sg73
I70
sg75
I72
sg76
I73
sg77
I74
sg78
I75
sg81
I78
sg103
I100
sg499
I496
sg79
I76
sg82
I79
sg83
I80
sg130
I127
sg89
I86
sg90
I87
sg91
I88
sg92
I89
sg346
I343
sg95
I92
sg96
I93
sg441
I438
sg307
I304
sg100
I97
sg236
I233
sg102
I99
sg296
I293
sg113
I110
sg105
I102
sg410
I407
sg107
I104
sg108
I105
sg589
I586
sg109
I106
sg513
I510
sg104
I101
sg114
I111
sg115
I112
sg116
I113
sg117
I114
sg288
I285
sg120
I117
sg121
I118
sg353
I350
sg123
I120
sg124
I121
sg125
I122
sg126
I123
sg550
I547
sg247
I244
sg129
I126
sg86
I83
sg131
I128
sg418
I415
sg133
I130
sg134
I131
sg175
I172
sg136
I133
sg137
I134
sg138
I135
sg617
I614
sg140
I137
sg473
I470
sg539
I536
sg142
I139
sg143
I140
sg145
I142
sg146
I143
sg21
I18
sg148
I145
sg149
I146
sg249
I246
sg498
I495
sg152
I149
sg154
I151
sg155
I152
sg157
I154
sg53
I50
sg159
I156
sg160
I157
sg315
I312
sg162
I159
sg328
I325
sg164
I161
sg165
I162
sg436
I433
sg167
I164
sg23
I20
sg169
I166
sg17
I14
sg171
I168
sg172
I169
sg173
I170
sg174
I171
sg511
I508
sg84
I81
sg177
I174
sg178
I175
sg179
I176
sg180
I177
sg181
I178
sg281
I278
sg256
I253
sg153
I150
sg186
I183
sg187
I184
sg610
I607
sg188
I185
sg189
I186
sg190
I187
sg191
I188
sg492
I489
sg383
I380
sg465
I462
sg285
I282
sg195
I192
sg557
I554
sg196
I193
sg197
I194
sg198
I195
sg199
I196
sg255
I252
sg201
I198
sg371
I368
sg203
I200
sg204
I201
sg363
I360
sg206
I203
sg127
I124
sg343
I340
sg210
I207
sg211
I208
sg212
I209
sg214
I211
sg414
I411
sg217
I214
sg218
I215
sg219
I216
sg220
I217
sg357
I354
sg222
I219
sg8
I5
sg224
I221
sg226
I223
sg106
I103
sg228
I225
sg304
I301
sg543
I540
sg230
I227
sg232
I229
sg13
I10
sg365
I362
sg235
I232
sg380
I377
sg101
I98
sg237
I234
sg459
I456
sg238
I235
sg132
I129
sg240
I237
sg241
I238
sg242
I239
sg243
I240
sg244
I241
sg245
I242
sg128
I125
sg248
I245
sg150
I147
sg250
I247
sg252
I249
sg253
I250
sg254
I251
sg200
I197
sg31
I28
sg477
I474
sg258
I255
sg359
I356
sg571
I568
sg261
I258
sg428
I425
sg47
I44
sg263
I260
sg264
I261
sg265
I262
sg273
I270
sg268
I265
sg269
I266
sg271
I268
sg497
I494
sg266
I263
sg274
I271
sg570
I567
sg276
I273
sg277
I274
sg182
I179
sg527
I524
sg280
I277
sg282
I279
sg283
I280
sg260
I257
sg286
I283
sg287
I284
sg289
I286
sg290
I287
sg292
I289
sg111
I108
sg295
I292
sg19
I16
sg297
I294
sg413
I410
sg299
I296
sg300
I297
sg301
I298
sg338
I335
sg303
I300
sg489
I486
sg305
I302
sg306
I303
sg308
I305
sg193
I190
sg310
I307
sg99
I96
sg524
I521
sg519
I516
sg314
I311
sg312
I309
sg329
I326
sg317
I314
sg377
I374
sg318
I315
sg319
I316
sg502
I499
sg320
I317
sg321
I318
sg229
I226
sg246
I243
sg326
I323
sg327
I324
sg467
I464
sg330
I327
sg331
I328
sg324
I321
sg333
I330
sg335
I332
sg336
I333
sg337
I334
sg494
I491
sg339
I336
sg378
I375
sg341
I338
sg342
I339
sg344
I341
sg345
I342
sg93
I90
sg147
I144
sg348
I345
sg349
I346
sg350
I347
sg351
I348
sg352
I349
sg122
I119
sg508
I505
sg16
I13
sg356
I353
sg221
I218
sg36
I33
sg194
I191
sg311
I308
sg576
I573
sg202
I199
sg184
I181
sg364
I361
sg451
I448
sg391
I388
sg234
I231
sg239
I236
sg54
I51
sg98
I95
sg369
I366
sg621
I618
sg370
I367
sg176
I173
sg372
I369
sg373
I370
sg374
I371
sg587
I584
sg376
I373
sg30
I27
sg340
I337
sg110
I107
sg381
I378
sg151
I148
sg192
I189
sg385
I382
sg386
I383
sg118
I115
sg388
I385
sg389
I386
sg440
I437
sg556
I553
sg390
I387
sg40
I37
sg387
I384
sg592
I589
sg394
I391
sg395
I392
sg396
I393
sg397
I394
sg619
I616
sg398
I395
sg399
I396
sg400
I397
sg568
I565
sg49
I46
sg402
I399
sg520
I517
sg223
I220
sg555
I552
sg614
I611
sg453
I450
sg404
I401
sg403
I400
sg406
I403
sg407
I404
sg70
I67
sg409
I406
sg379
I376
sg411
I408
sg412
I409
sg475
I472
sg415
I412
sg416
I413
sg417
I414
sg257
I254
sg419
I416
sg466
I463
sg421
I418
sg185
I182
sg422
I419
sg423
I420
sg424
I421
sg425
I422
sg426
I423
sg427
I424
sg579
I576
sg533
I530
sg14
I11
sg429
I426
sg32
I29
sg205
I202
sg37
I34
sg433
I430
sg434
I431
sg435
I432
sg166
I163
sg472
I469
sg437
I434
sg302
I299
sg63
I60
sg97
I94
sg442
I439
sg443
I440
sg444
I441
sg325
I322
sg596
I593
sg601
I598
sg602
I599
sg448
I445
sg163
I160
sg450
I447
sg259
I256
sg452
I449
sg438
I435
sg294
I291
sg603
I600
sg384
I381
sg227
I224
sg457
I454
sg362
I359
sg458
I455
sg382
I379
sg455
I452
sg460
I457
sg367
I364
sg605
I602
sg358
I355
sg463
I460
sg401
I398
sg609
I606
sg309
I306
sg541
I538
sg291
I288
sg468
I465
sg469
I466
sg471
I468
sg293
I290
sg334
I331
sg474
I471
sg332
I329
sg456
I453
sg476
I473
sg323
I320
sg478
I475
sg479
I476
sg270
I267
sg481
I478
sg482
I479
sg483
I480
sg484
I481
sg485
I482
sg486
I483
sg322
I319
sg488
I485
sg490
I487
sg491
I488
sg209
I206
sg563
I560
sg4
I1
sg420
I417
sg495
I492
sg496
I493
sg26
I23
sg593
I590
sg80
I77
sg500
I497
sg501
I498
sg449
I446
sg366
I363
sg28
I25
sg504
I501
sg505
I502
sg506
I503
sg565
I562
sg284
I281
sg559
I556
sg510
I507
sg112
I109
sg512
I509
sg514
I511
sg515
I512
sg516
I513
sg392
I389
sg517
I514
sg216
I213
sg33
I30
sg405
I402
sg521
I518
sg523
I520
sg251
I248
sg158
I155
sg525
I522
sg526
I523
sg279
I276
sg528
I525
sg529
I526
sg29
I26
sg531
I528
sg532
I529
sg39
I36
sg534
I531
sg535
I532
sg536
I533
sg537
I534
sg538
I535
sg141
I138
sg540
I537
sg542
I539
sg509
I506
sg544
I541
sg94
I91
sg546
I543
sg547
I544
sg615
I612
sg119
I116
sg549
I546
sg551
I548
sg552
I549
sg553
I550
sg554
I551
sg567
I564
sg445
I442
sg518
I515
sg135
I132
sg558
I555
sg233
I230
sg560
I557
sg561
I558
sg215
I212
sg480
I477
sg564
I561
sg170
I167
sg566
I563
sg35
I32
sg207
I204
sg569
I566
sg275
I272
sg278
I275
sg572
I569
sg573
I570
sg574
I571
sg575
I572
sg168
I165
sg577
I574
sg208
I205
sg316
I313
sg618
I615
sg503
I500
sg545
I542
sg580
I577
sg590
I587
sg581
I578
sg582
I579
sg583
I580
sg584
I581
sg585
I582
sg586
I583
sg298
I295
sg588
I585
sg156
I153
sg607
I604
sg213
I210
sg591
I588
sg393
I390
sg361
I358
sg347
I344
sg594
I591
sg595
I592
sg57
I54
sg597
I594
sg598
I595
sg599
I596
sg600
I597
sg446
I443
sg447
I444
sg454
I451
sg604
I601
sg461
I458
sg606
I603
sg231
I228
sg608
I605
sg439
I436
sg360
I357
sg161
I158
sg611
I608
sg612
I609
sg613
I610
sg562
I559
sg548
I545
sg616
I613
sg139
I136
sg487
I484
sg74
I71
sg620
I617
sg272
I269
sg622
I619
sa(dp626
I0
g3
sI1
g4
sI2
g5
sI3
g6
sI4
g7
sI5
g8
sI6
g9
sI7
g10
sI8
g11
sI9
g12
sI10
g13
sI11
g14
sI12
g15
sI13
g16
sI14
g17
sI15
g18
sI16
g19
sI17
g20
sI18
g21
sI19
g22
sI20
g23
sI21
g24
sI22
g25
sI23
g26
sI24
g27
sI25
g28
sI26
g29
sI27
g30
sI28
g31
sI29
g32
sI30
g33
sI31
g34
sI32
g35
sI33
g36
sI34
g37
sI35
g38
sI36
g39
sI37
g40
sI38
g41
sI39
g42
sI40
g43
sI41
g44
sI42
g45
sI43
g46
sI44
g47
sI45
g48
sI46
g49
sI47
g50
sI48
g51
sI49
g52
sI50
g53
sI51
g54
sI52
g55
sI53
g56
sI54
g57
sI55
g58
sI56
g59
sI57
g60
sI58
g61
sI59
g62
sI60
g63
sI61
g64
sI62
g65
sI63
g66
sI64
g67
sI65
g68
sI66
g69
sI67
g70
sI68
g71
sI69
g72
sI70
g73
sI71
g74
sI72
g75
sI73
g76
sI74
g77
sI75
g78
sI76
g79
sI77
g80
sI78
g81
sI79
g82
sI80
g83
sI81
g84
sI82
g85
sI83
g86
sI84
g87
sI85
g88
sI86
g89
sI87
g90
sI88
g91
sI89
g92
sI90
g93
sI91
g94
sI92
g95
sI93
g96
sI94
g97
sI95
g98
sI96
g99
sI97
g100
sI98
g101
sI99
g102
sI100
g103
sI101
g104
sI102
g105
sI103
g106
sI104
g107
sI105
g108
sI106
g109
sI107
g110
sI108
g111
sI109
g112
sI110
g113
sI111
g114
sI112
g115
sI113
g116
sI114
g117
sI115
g118
sI116
g119
sI117
g120
sI118
g121
sI119
g122
sI120
g123
sI121
g124
sI122
g125
sI123
g126
sI124
g127
sI125
g128
sI126
g129
sI127
g130
sI128
g131
sI129
g132
sI130
g133
sI131
g134
sI132
g135
sI133
g136
sI134
g137
sI135
g138
sI136
g139
sI137
g140
sI138
g141
sI139
g142
sI140
g143
sI141
g144
sI142
g145
sI143
g146
sI144
g147
sI145
g148
sI146
g149
sI147
g150
sI148
g151
sI149
g152
sI150
g153
sI151
g154
sI152
g155
sI153
g156
sI154
g157
sI155
g158
sI156
g159
sI157
g160
sI158
g161
sI159
g162
sI160
g163
sI161
g164
sI162
g165
sI163
g166
sI164
g167
sI165
g168
sI166
g169
sI167
g170
sI168
g171
sI169
g172
sI170
g173
sI171
g174
sI172
g175
sI173
g176
sI174
g177
sI175
g178
sI176
g179
sI177
g180
sI178
g181
sI179
g182
sI180
g183
sI181
g184
sI182
g185
sI183
g186
sI184
g187
sI185
g188
sI186
g189
sI187
g190
sI188
g191
sI189
g192
sI190
g193
sI191
g194
sI192
g195
sI193
g196
sI194
g197
sI195
g198
sI196
g199
sI197
g200
sI198
g201
sI199
g202
sI200
g203
sI201
g204
sI202
g205
sI203
g206
sI204
g207
sI205
g208
sI206
g209
sI207
g210
sI208
g211
sI209
g212
sI210
g213
sI211
g214
sI212
g215
sI213
g216
sI214
g217
sI215
g218
sI216
g219
sI217
g220
sI218
g221
sI219
g222
sI220
g223
sI221
g224
sI222
g225
sI223
g226
sI224
g227
sI225
g228
sI226
g229
sI227
g230
sI228
g231
sI229
g232
sI230
g233
sI231
g234
sI232
g235
sI233
g236
sI234
g237
sI235
g238
sI236
g239
sI237
g240
sI238
g241
sI239
g242
sI240
g243
sI241
g244
sI242
g245
sI243
g246
sI244
g247
sI245
g248
sI246
g249
sI247
g250
sI248
g251
sI249
g252
sI250
g253
sI251
g254
sI252
g255
sI253
g256
sI254
g257
sI255
g258
sI256
g259
sI257
g260
sI258
g261
sI259
g262
sI260
g263
sI261
g264
sI262
g265
sI263
g266
sI264
g267
sI265
g268
sI266
g269
sI267
g270
sI268
g271
sI269
g272
sI270
g273
sI271
g274
sI272
g275
sI273
g276
sI274
g277
sI275
g278
sI276
g279
sI277
g280
sI278
g281
sI279
g282
sI280
g283
sI281
g284
sI282
g285
sI283
g286
sI284
g287
sI285
g288
sI286
g289
sI287
g290
sI288
g291
sI289
g292
sI290
g293
sI291
g294
sI292
g295
sI293
g296
sI294
g297
sI295
g298
sI296
g299
sI297
g300
sI298
g301
sI299
g302
sI300
g303
sI301
g304
sI302
g305
sI303
g306
sI304
g307
sI305
g308
sI306
g309
sI307
g310
sI308
g311
sI309
g312
sI310
g313
sI311
g314
sI312
g315
sI313
g316
sI314
g317
sI315
g318
sI316
g319
sI317
g320
sI318
g321
sI319
g322
sI320
g323
sI321
g324
sI322
g325
sI323
g326
sI324
g327
sI325
g328
sI326
g329
sI327
g330
sI328
g331
sI329
g332
sI330
g333
sI331
g334
sI332
g335
sI333
g336
sI334
g337
sI335
g338
sI336
g339
sI337
g340
sI338
g341
sI339
g342
sI340
g343
sI341
g344
sI342
g345
sI343
g346
sI344
g347
sI345
g348
sI346
g349
sI347
g350
sI348
g351
sI349
g352
sI350
g353
sI351
g354
sI352
g355
sI353
g356
sI354
g357
sI355
g358
sI356
g359
sI357
g360
sI358
g361
sI359
g362
sI360
g363
sI361
g364
sI362
g365
sI363
g366
sI364
g367
sI365
g368
sI366
g369
sI367
g370
sI368
g371
sI369
g372
sI370
g373
sI371
g374
sI372
g375
sI373
g376
sI374
g377
sI375
g378
sI376
g379
sI377
g380
sI378
g381
sI379
g382
sI380
g383
sI381
g384
sI382
g385
sI383
g386
sI384
g387
sI385
g388
sI386
g389
sI387
g390
sI388
g391
sI389
g392
sI390
g393
sI391
g394
sI392
g395
sI393
g396
sI394
g397
sI395
g398
sI396
g399
sI397
g400
sI398
g401
sI399
g402
sI400
g403
sI401
g404
sI402
g405
sI403
g406
sI404
g407
sI405
g408
sI406
g409
sI407
g410
sI408
g411
sI409
g412
sI410
g413
sI411
g414
sI412
g415
sI413
g416
sI414
g417
sI415
g418
sI416
g419
sI417
g420
sI418
g421
sI419
g422
sI420
g423
sI421
g424
sI422
g425
sI423
g426
sI424
g427
sI425
g428
sI426
g429
sI427
g430
sI428
g431
sI429
g432
sI430
g433
sI431
g434
sI432
g435
sI433
g436
sI434
g437
sI435
g438
sI436
g439
sI437
g440
sI438
g441
sI439
g442
sI440
g443
sI441
g444
sI442
g445
sI443
g446
sI444
g447
sI445
g448
sI446
g449
sI447
g450
sI448
g451
sI449
g452
sI450
g453
sI451
g454
sI452
g455
sI453
g456
sI454
g457
sI455
g458
sI456
g459
sI457
g460
sI458
g461
sI459
g462
sI460
g463
sI461
g464
sI462
g465
sI463
g466
sI464
g467
sI465
g468
sI466
g469
sI467
g470
sI468
g471
sI469
g472
sI470
g473
sI471
g474
sI472
g475
sI473
g476
sI474
g477
sI475
g478
sI476
g479
sI477
g480
sI478
g481
sI479
g482
sI480
g483
sI481
g484
sI482
g485
sI483
g486
sI484
g487
sI485
g488
sI486
g489
sI487
g490
sI488
g491
sI489
g492
sI490
g493
sI491
g494
sI492
g495
sI493
g496
sI494
g497
sI495
g498
sI496
g499
sI497
g500
sI498
g501
sI499
g502
sI500
g503
sI501
g504
sI502
g505
sI503
g506
sI504
g507
sI505
g508
sI506
g509
sI507
g510
sI508
g511
sI509
g512
sI510
g513
sI511
g514
sI512
g515
sI513
g516
sI514
g517
sI515
g518
sI516
g519
sI517
g520
sI518
g521
sI519
g522
sI520
g523
sI521
g524
sI522
g525
sI523
g526
sI524
g527
sI525
g528
sI526
g529
sI527
g530
sI528
g531
sI529
g532
sI530
g533
sI531
g534
sI532
g535
sI533
g536
sI534
g537
sI535
g538
sI536
g539
sI537
g540
sI538
g541
sI539
g542
sI540
g543
sI541
g544
sI542
g545
sI543
g546
sI544
g547
sI545
g548
sI546
g549
sI547
g550
sI548
g551
sI549
g552
sI550
g553
sI551
g554
sI552
g555
sI553
g556
sI554
g557
sI555
g558
sI556
g559
sI557
g560
sI558
g561
sI559
g562
sI560
g563
sI561
g564
sI562
g565
sI563
g566
sI564
g567
sI565
g568
sI566
g569
sI567
g570
sI568
g571
sI569
g572
sI570
g573
sI571
g574
sI572
g575
sI573
g576
sI574
g577
sI575
g578
sI576
g579
sI577
g580
sI578
g581
sI579
g582
sI580
g583
sI581
g584
sI582
g585
sI583
g586
sI584
g587
sI585
g588
sI586
g589
sI587
g590
sI588
g591
sI589
g592
sI590
g593
sI591
g594
sI592
g595
sI593
g596
sI594
g597
sI595
g598
sI596
g599
sI597
g600
sI598
g601
sI599
g602
sI600
g603
sI601
g604
sI602
g605
sI603
g606
sI604
g607
sI605
g608
sI606
g609
sI607
g610
sI608
g611
sI609
g612
sI610
g613
sI611
g614
sI612
g615
sI613
g616
sI614
g617
sI615
g618
sI616
g619
sI617
g620
sI618
g621
sI619
g622
saI620
a.